target datalayout = "e-m:e-p270:32:32-p271:32:32-p272:64:64-i64:64-i128:128-f80:128-n8:16:32:64-S128"
target triple = "x86_64-pc-linux-gnu"

%"struct.std::__detail::_Hash_node_base" = type { ptr }
%"struct.std::__detail::_Prime_rehash_policy" = type { float, i64 }
%"class.pxrInternal_v0_24__pxrReserved__::TfToken" = type { %"class.pxrInternal_v0_24__pxrReserved__::TfPointerAndBits" }
%"class.pxrInternal_v0_24__pxrReserved__::TfPointerAndBits" = type { ptr }
%"class.std::vector" = type { %"struct.std::_Vector_base" }
%"struct.std::_Vector_base" = type { %"struct.std::_Vector_base<pxrInternal_v0_24__pxrReserved__::TfToken, std::allocator<pxrInternal_v0_24__pxrReserved__::TfToken>>::_Vector_impl" }
%"struct.std::_Vector_base<pxrInternal_v0_24__pxrReserved__::TfToken, std::allocator<pxrInternal_v0_24__pxrReserved__::TfToken>>::_Vector_impl" = type { %"struct.std::_Vector_base<pxrInternal_v0_24__pxrReserved__::TfToken, std::allocator<pxrInternal_v0_24__pxrReserved__::TfToken>>::_Vector_impl_data" }
%"struct.std::_Vector_base<pxrInternal_v0_24__pxrReserved__::TfToken, std::allocator<pxrInternal_v0_24__pxrReserved__::TfToken>>::_Vector_impl_data" = type { ptr, ptr, ptr }
%"class.pxrInternal_v0_24__pxrReserved__::SdrShaderProperty" = type <{ %"class.pxrInternal_v0_24__pxrReserved__::NdrProperty", %"class.std::unordered_map", %"class.std::vector.15", %"class.std::vector", %"class.pxrInternal_v0_24__pxrReserved__::TfToken", %"class.pxrInternal_v0_24__pxrReserved__::TfToken", %"class.pxrInternal_v0_24__pxrReserved__::TfToken", %"class.pxrInternal_v0_24__pxrReserved__::TfToken", %"class.pxrInternal_v0_24__pxrReserved__::TfToken", %"class.pxrInternal_v0_24__pxrReserved__::TfToken", %"class.pxrInternal_v0_24__pxrReserved__::VtValue", i32, [4 x i8] }>
%"class.pxrInternal_v0_24__pxrReserved__::NdrProperty" = type { ptr, %"class.pxrInternal_v0_24__pxrReserved__::TfToken", %"class.pxrInternal_v0_24__pxrReserved__::TfToken", %"class.pxrInternal_v0_24__pxrReserved__::VtValue", i8, i64, i8, i8, %"class.std::unordered_map" }
%"class.std::unordered_map" = type { %"class.std::_Hashtable" }
%"class.std::_Hashtable" = type { ptr, i64, %"struct.std::__detail::_Hash_node_base", i64, %"struct.std::__detail::_Prime_rehash_policy", ptr }
%"class.std::vector.15" = type { %"struct.std::_Vector_base.16" }
%"struct.std::_Vector_base.16" = type { %"struct.std::_Vector_base<std::pair<pxrInternal_v0_24__pxrReserved__::TfToken, pxrInternal_v0_24__pxrReserved__::TfToken>, std::allocator<std::pair<pxrInternal_v0_24__pxrReserved__::TfToken, pxrInternal_v0_24__pxrReserved__::TfToken>>>::_Vector_impl" }
%"struct.std::_Vector_base<std::pair<pxrInternal_v0_24__pxrReserved__::TfToken, pxrInternal_v0_24__pxrReserved__::TfToken>, std::allocator<std::pair<pxrInternal_v0_24__pxrReserved__::TfToken, pxrInternal_v0_24__pxrReserved__::TfToken>>>::_Vector_impl" = type { %"struct.std::_Vector_base<std::pair<pxrInternal_v0_24__pxrReserved__::TfToken, pxrInternal_v0_24__pxrReserved__::TfToken>, std::allocator<std::pair<pxrInternal_v0_24__pxrReserved__::TfToken, pxrInternal_v0_24__pxrReserved__::TfToken>>>::_Vector_impl_data" }
%"struct.std::_Vector_base<std::pair<pxrInternal_v0_24__pxrReserved__::TfToken, pxrInternal_v0_24__pxrReserved__::TfToken>, std::allocator<std::pair<pxrInternal_v0_24__pxrReserved__::TfToken, pxrInternal_v0_24__pxrReserved__::TfToken>>>::_Vector_impl_data" = type { ptr, ptr, ptr }
%"class.pxrInternal_v0_24__pxrReserved__::VtValue" = type { %"union.std::aligned_storage<8, 8>::type", %"class.pxrInternal_v0_24__pxrReserved__::TfPointerAndBits.9" }
%"union.std::aligned_storage<8, 8>::type" = type { [8 x i8] }
%"class.pxrInternal_v0_24__pxrReserved__::TfPointerAndBits.9" = type { ptr }
%"struct.std::pair.27" = type { %"class.pxrInternal_v0_24__pxrReserved__::SdfValueTypeName", %"class.pxrInternal_v0_24__pxrReserved__::TfToken" }
%"class.pxrInternal_v0_24__pxrReserved__::SdfValueTypeName" = type { ptr }

; Function Attrs: mustprogress uwtable
define void @_ZNK32pxrInternal_v0_24__pxrReserved__17SdrShaderProperty16GetTypeAsSdfTypeEv(ptr dead_on_unwind noalias writable sret(%"struct.std::pair.27") align 8 %0, ptr noundef nonnull align 8 dereferenceable(292) %1) unnamed_addr #1 align 2 {
  %3 = alloca ptr, align 8
  %4 = alloca ptr, align 8
  store ptr %0, ptr %3, align 8
  store ptr %1, ptr %4, align 8
  %5 = load ptr, ptr %4, align 8
  %6 = getelementptr inbounds nuw %"class.pxrInternal_v0_24__pxrReserved__::NdrProperty", ptr %5, i32 0, i32 2
  %7 = getelementptr inbounds nuw %"class.pxrInternal_v0_24__pxrReserved__::NdrProperty", ptr %5, i32 0, i32 5
  %8 = load i64, ptr %7, align 8
  %9 = getelementptr inbounds nuw %"class.pxrInternal_v0_24__pxrReserved__::NdrProperty", ptr %5, i32 0, i32 8
  %10 = getelementptr inbounds nuw %"class.pxrInternal_v0_24__pxrReserved__::SdrShaderProperty", ptr %5, i32 0, i32 11
  %11 = load i32, ptr %10, align 8
  call void @_ZN32pxrInternal_v0_24__pxrReserved__12_GLOBAL__N_117_GetTypeAsSdfTypeERKNS_7TfTokenEmRKSt13unordered_mapIS1_NSt7__cxx1112basic_stringIcSt11char_traitsIcESaIcEEENS1_11HashFunctorESt8equal_toIS1_ESaISt4pairIS2_SA_EEEi(ptr dead_on_unwind writable sret(%"struct.std::pair.27") align 8 %0, ptr noundef nonnull align 8 dereferenceable(8) %6, i64 noundef %8, ptr noundef nonnull align 8 dereferenceable(56) %9, i32 noundef %11)
  ret void
}