; Function Attrs: mustprogress uwtable
define void @_ZNK32pxrInternal_v0_24__pxrReserved__17SdrShaderProperty16GetTypeAsSdfTypeEv(ptr dead_on_unwind noalias nocapture writable writeonly sret(%"struct.std::pair.27") align 8 %0, ptr noundef nonnull align 8 dereferenceable(292) %1) unnamed_addr #1 align 2 {
  %3 = getelementptr inbounds nuw i8, ptr %1, i64 16
  %4 = getelementptr inbounds nuw i8, ptr %1, i64 48
  %5 = load i64, ptr %4, align 8
  %6 = getelementptr inbounds nuw i8, ptr %1, i64 64
  %7 = getelementptr inbounds nuw i8, ptr %1, i64 288
  %8 = load i32, ptr %7, align 8
  tail call fastcc void @_ZN32pxrInternal_v0_24__pxrReserved__12_GLOBAL__N_117_GetTypeAsSdfTypeERKNS_7TfTokenEmRKSt13unordered_mapIS1_NSt7__cxx1112basic_stringIcSt11char_traitsIcESaIcEEENS1_11HashFunctorESt8equal_toIS1_ESaISt4pairIS2_SA_EEEi(ptr dead_on_unwind noalias writable align 8 %0, ptr noundef nonnull align 8 dereferenceable(8) %3, i64 noundef %5, ptr noundef nonnull align 8 dereferenceable(56) %6, i32 noundef %8)
  ret void
}